target datalayout = "e-m:e-p270:32:32-p271:32:32-p272:64:64-i64:64-i128:128-f80:128-n8:16:32:64-S128"
target triple = "x86_64-pc-linux-gnu"

@appname_with_version = internal global ptr null, align 8
@.str.28 = private unnamed_addr constant [4 x i8] c"%s\0A\00", align 1
@.str.29 = private unnamed_addr constant [53 x i8] c"See https://www.wireshark.org for more information.\0A\00", align 1

; Function Attrs: null_pointer_is_valid sspstrong uwtable
define void @show_help_header(ptr noundef %0) #0 {
  %2 = alloca ptr, align 8
  store ptr %0, ptr %2, align 8
  %3 = load ptr, ptr @appname_with_version, align 8
  %4 = call i32 (i32, ptr, ...) @__printf_chk(i32 noundef 2, ptr noundef @.str.28, ptr noundef %3)
  %5 = load ptr, ptr %2, align 8
  %6 = icmp ne ptr %5, null
  br i1 %6, label %7, label %11

7:                                                ; preds = %1
  %8 = load ptr, ptr %2, align 8
  %9 = call i32 (i32, ptr, ...) @__printf_chk(i32 noundef 2, ptr noundef @.str.28, ptr noundef %8)
  %10 = call i32 (i32, ptr, ...) @__printf_chk(i32 noundef 2, ptr noundef @.str.29)
  br label %11

11:                                               ; preds = %7, %1
  ret void
}