; Function Attrs: null_pointer_is_valid sspstrong uwtable
define void @show_help_header(ptr noundef %0) local_unnamed_addr #0 {
  %2 = load ptr, ptr @appname_with_version, align 8
  %3 = tail call i32 (i32, ptr, ...) @__printf_chk(i32 noundef 2, ptr noundef nonnull @.str.28, ptr noundef %2)
  %.not = icmp eq ptr %0, null
  br i1 %.not, label %7, label %4

4:                                                ; preds = %1
  %5 = tail call i32 (i32, ptr, ...) @__printf_chk(i32 noundef 2, ptr noundef nonnull @.str.28, ptr noundef nonnull %0)
  %6 = tail call i32 (i32, ptr, ...) @__printf_chk(i32 noundef 2, ptr noundef nonnull @.str.29)
  br label %7

7:                                                ; preds = %4, %1
  ret void
}